; Function Attrs: nounwind uwtable
define ptr @l_Std_Range_forIn_x27_loop___at_Lean_Compiler_LCNF_Check_checkAppArgs___spec__2___lambda__2___boxed(ptr noundef readonly captures(none) %0) local_unnamed_addr #0 {
  %2 = load ptr, ptr %0, align 8, !tbaa !9
  %3 = getelementptr inbounds nuw i8, ptr %0, i64 8
  %4 = load ptr, ptr %3, align 8, !tbaa !9
  %5 = getelementptr inbounds nuw i8, ptr %0, i64 16
  %6 = load ptr, ptr %5, align 8, !tbaa !9
  %7 = getelementptr inbounds nuw i8, ptr %0, i64 24
  %8 = load ptr, ptr %7, align 8, !tbaa !9
  %9 = getelementptr inbounds nuw i8, ptr %0, i64 32
  %10 = load ptr, ptr %9, align 8, !tbaa !9
  %11 = getelementptr inbounds nuw i8, ptr %0, i64 40
  %12 = load ptr, ptr %11, align 8, !tbaa !9
  %13 = getelementptr inbounds nuw i8, ptr %0, i64 48
  %14 = load ptr, ptr %13, align 8, !tbaa !9
  %15 = getelementptr inbounds nuw i8, ptr %0, i64 56
  %16 = load ptr, ptr %15, align 8, !tbaa !9
  %17 = getelementptr inbounds nuw i8, ptr %0, i64 64
  %18 = load ptr, ptr %17, align 8, !tbaa !9
  %19 = getelementptr inbounds nuw i8, ptr %0, i64 72
  %20 = load ptr, ptr %19, align 8, !tbaa !9
  %21 = getelementptr inbounds nuw i8, ptr %0, i64 80
  %22 = load ptr, ptr %21, align 8, !tbaa !9
  %23 = getelementptr inbounds nuw i8, ptr %0, i64 88
  %24 = load ptr, ptr %23, align 8, !tbaa !9
  %25 = getelementptr inbounds nuw i8, ptr %0, i64 96
  %26 = load ptr, ptr %25, align 8, !tbaa !9
  %27 = getelementptr inbounds nuw i8, ptr %0, i64 104
  %28 = load ptr, ptr %27, align 8, !tbaa !9
  %29 = getelementptr inbounds nuw i8, ptr %0, i64 112
  %30 = load ptr, ptr %29, align 8, !tbaa !9
  %31 = getelementptr inbounds nuw i8, ptr %0, i64 120
  %32 = load ptr, ptr %31, align 8, !tbaa !9
  %33 = getelementptr inbounds nuw i8, ptr %0, i64 128
  %34 = load ptr, ptr %33, align 8, !tbaa !9
  %35 = getelementptr inbounds nuw i8, ptr %0, i64 136
  %36 = load ptr, ptr %35, align 8, !tbaa !9
  %37 = tail call ptr @l_Std_Range_forIn_x27_loop___at_Lean_Compiler_LCNF_Check_checkAppArgs___spec__2___lambda__2(ptr noundef %2, ptr noundef %4, ptr noundef %6, ptr noundef %8, ptr noundef %10, ptr noundef %12, ptr noundef %14, ptr noundef %16, ptr poison, ptr poison, ptr noundef %22, ptr poison, ptr poison, ptr noundef %28, ptr noundef %30, ptr noundef %32, ptr noundef %34, ptr noundef %36)
  %38 = ptrtoint ptr %26 to i64
  %39 = and i64 %38, 1
  %.not = icmp eq i64 %39, 0
  br i1 %.not, label %40, label %lean_dec.exit47

40:                                               ; preds = %1
  %41 = load i32, ptr %26, align 4, !tbaa !4
  %42 = icmp sgt i32 %41, 1
  br i1 %42, label %43, label %45, !prof !12

43:                                               ; preds = %40
  %44 = add nsw i32 %41, -1
  store i32 %44, ptr %26, align 4, !tbaa !4
  br label %lean_dec.exit47

45:                                               ; preds = %40
  %.not.i = icmp eq i32 %41, 0
  br i1 %.not.i, label %lean_dec.exit47, label %46

46:                                               ; preds = %45
  tail call void @lean_dec_ref_cold(ptr noundef nonnull %26) #4
  br label %lean_dec.exit47

lean_dec.exit47:                                  ; preds = %46, %45, %43, %1
  %47 = ptrtoint ptr %24 to i64
  %48 = and i64 %47, 1
  %.not58 = icmp eq i64 %48, 0
  br i1 %.not58, label %49, label %lean_dec.exit46

49:                                               ; preds = %lean_dec.exit47
  %50 = load i32, ptr %24, align 4, !tbaa !4
  %51 = icmp sgt i32 %50, 1
  br i1 %51, label %52, label %54, !prof !12

52:                                               ; preds = %49
  %53 = add nsw i32 %50, -1
  store i32 %53, ptr %24, align 4, !tbaa !4
  br label %lean_dec.exit46

54:                                               ; preds = %49
  %.not.i48 = icmp eq i32 %50, 0
  br i1 %.not.i48, label %lean_dec.exit46, label %55

55:                                               ; preds = %54
  tail call void @lean_dec_ref_cold(ptr noundef nonnull %24) #4
  br label %lean_dec.exit46

lean_dec.exit46:                                  ; preds = %55, %54, %52, %lean_dec.exit47
  %56 = ptrtoint ptr %22 to i64
  %57 = and i64 %56, 1
  %.not59 = icmp eq i64 %57, 0
  br i1 %.not59, label %58, label %lean_dec.exit45

58:                                               ; preds = %lean_dec.exit46
  %59 = load i32, ptr %22, align 4, !tbaa !4
  %60 = icmp sgt i32 %59, 1
  br i1 %60, label %61, label %63, !prof !12

61:                                               ; preds = %58
  %62 = add nsw i32 %59, -1
  store i32 %62, ptr %22, align 4, !tbaa !4
  br label %lean_dec.exit45

63:                                               ; preds = %58
  %.not.i50 = icmp eq i32 %59, 0
  br i1 %.not.i50, label %lean_dec.exit45, label %64

64:                                               ; preds = %63
  tail call void @lean_dec_ref_cold(ptr noundef nonnull %22) #4
  br label %lean_dec.exit45

lean_dec.exit45:                                  ; preds = %64, %63, %61, %lean_dec.exit46
  %65 = ptrtoint ptr %20 to i64
  %66 = and i64 %65, 1
  %.not60 = icmp eq i64 %66, 0
  br i1 %.not60, label %67, label %lean_dec.exit44

67:                                               ; preds = %lean_dec.exit45
  %68 = load i32, ptr %20, align 4, !tbaa !4
  %69 = icmp sgt i32 %68, 1
  br i1 %69, label %70, label %72, !prof !12

70:                                               ; preds = %67
  %71 = add nsw i32 %68, -1
  store i32 %71, ptr %20, align 4, !tbaa !4
  br label %lean_dec.exit44

72:                                               ; preds = %67
  %.not.i52 = icmp eq i32 %68, 0
  br i1 %.not.i52, label %lean_dec.exit44, label %73

73:                                               ; preds = %72
  tail call void @lean_dec_ref_cold(ptr noundef nonnull %20) #4
  br label %lean_dec.exit44

lean_dec.exit44:                                  ; preds = %73, %72, %70, %lean_dec.exit45
  %74 = ptrtoint ptr %18 to i64
  %75 = and i64 %74, 1
  %.not61 = icmp eq i64 %75, 0
  br i1 %.not61, label %76, label %lean_dec.exit43

76:                                               ; preds = %lean_dec.exit44
  %77 = load i32, ptr %18, align 4, !tbaa !4
  %78 = icmp sgt i32 %77, 1
  br i1 %78, label %79, label %81, !prof !12

79:                                               ; preds = %76
  %80 = add nsw i32 %77, -1
  store i32 %80, ptr %18, align 4, !tbaa !4
  br label %lean_dec.exit43

81:                                               ; preds = %76
  %.not.i54 = icmp eq i32 %77, 0
  br i1 %.not.i54, label %lean_dec.exit43, label %82

82:                                               ; preds = %81
  tail call void @lean_dec_ref_cold(ptr noundef nonnull %18) #4
  br label %lean_dec.exit43

lean_dec.exit43:                                  ; preds = %82, %81, %79, %lean_dec.exit44
  %83 = ptrtoint ptr %14 to i64
  %84 = and i64 %83, 1
  %.not62 = icmp eq i64 %84, 0
  br i1 %.not62, label %85, label %lean_dec.exit

85:                                               ; preds = %lean_dec.exit43
  %86 = load i32, ptr %14, align 4, !tbaa !4
  %87 = icmp sgt i32 %86, 1
  br i1 %87, label %88, label %90, !prof !12

88:                                               ; preds = %85
  %89 = add nsw i32 %86, -1
  store i32 %89, ptr %14, align 4, !tbaa !4
  br label %lean_dec.exit

90:                                               ; preds = %85
  %.not.i56 = icmp eq i32 %86, 0
  br i1 %.not.i56, label %lean_dec.exit, label %91

91:                                               ; preds = %90
  tail call void @lean_dec_ref_cold(ptr noundef nonnull %14) #4
  br label %lean_dec.exit

lean_dec.exit:                                    ; preds = %91, %90, %88, %lean_dec.exit43
  ret ptr %37
}